; Function Attrs: null_pointer_is_valid sspstrong uwtable
define internal void @dissect_osd_format_osd(ptr noundef %0, ptr noundef %1, ptr noundef %2, i32 noundef %3, i1 noundef zeroext %4, i1 noundef zeroext %5, i32 %6, ptr noundef captures(address_is_null) %7, ptr readnone captures(none) %8, ptr noundef %9) #3 {
  %.not = xor i1 %4, true
  %brmerge.not = and i1 %4, %5
  br i1 %brmerge.not, label %11, label %48

11:                                               ; preds = %10
  tail call fastcc void @dissect_osd_option(ptr noundef %0, i32 noundef %3, ptr noundef %2)
  %12 = add i32 %3, 1
  %.not.i = icmp eq ptr %7, null
  br i1 %.not.i, label %dissect_osd_getsetattrib.exit, label %13

13:                                               ; preds = %11
  %14 = getelementptr inbounds nuw i8, ptr %7, i64 8
  %15 = load ptr, ptr %14, align 8
  %.not11.i = icmp eq ptr %15, null
  br i1 %.not11.i, label %dissect_osd_getsetattrib.exit, label %16

16:                                               ; preds = %13
  %17 = getelementptr inbounds nuw i8, ptr %15, i64 64
  %18 = load ptr, ptr %17, align 8
  %.not12.i = icmp eq ptr %18, null
  br i1 %.not12.i, label %dissect_osd_getsetattrib.exit, label %19

19:                                               ; preds = %16
  %20 = tail call zeroext i8 @tvb_get_uint8(ptr noundef %0, i32 noundef %12)
  %21 = lshr i8 %20, 4
  %22 = and i8 %21, 3
  %23 = getelementptr inbounds nuw i8, ptr %18, i64 2
  store i8 %22, ptr %23, align 2
  br label %dissect_osd_getsetattrib.exit

dissect_osd_getsetattrib.exit:                    ; preds = %11, %13, %16, %19
  %24 = load i32, ptr @hf_scsi_osd_getsetattrib, align 4
  %25 = tail call ptr @proto_tree_add_item(ptr noundef %2, i32 noundef %24, ptr noundef %0, i32 noundef %12, i32 noundef 1, i32 noundef 0)
  %26 = add i32 %3, 2
  %27 = load i32, ptr @hf_scsi_osd_timestamps_control, align 4
  %28 = tail call ptr @proto_tree_add_item(ptr noundef %2, i32 noundef %27, ptr noundef %0, i32 noundef %26, i32 noundef 1, i32 noundef 0)
  %29 = add i32 %3, 26
  %30 = load i32, ptr @hf_scsi_osd_formatted_capacity, align 4
  %31 = tail call ptr @proto_tree_add_item(ptr noundef %2, i32 noundef %30, ptr noundef %0, i32 noundef %29, i32 noundef 8, i32 noundef 0)
  %32 = add i32 %3, 42
  tail call fastcc void @dissect_osd_attribute_parameters(ptr noundef %1, ptr noundef %0, i32 noundef %32, ptr noundef %2, ptr noundef %7)
  %33 = add i32 %3, 70
  tail call fastcc void @dissect_osd_capability(ptr noundef %0, i32 noundef %33, ptr noundef %2)
  %34 = add i32 %3, 150
  %35 = load i32, ptr @ett_osd_security_parameters, align 4
  %36 = tail call ptr @proto_tree_add_subtree(ptr noundef %2, ptr noundef %0, i32 noundef %34, i32 noundef 40, i32 noundef %35, ptr noundef null, ptr noundef nonnull @.str.294)
  %37 = load i32, ptr @hf_scsi_osd_ricv, align 4
  %38 = tail call ptr @proto_tree_add_item(ptr noundef %36, i32 noundef %37, ptr noundef %0, i32 noundef %34, i32 noundef 20, i32 noundef 0)
  %39 = add i32 %3, 170
  %40 = load i32, ptr @hf_scsi_osd_request_nonce, align 4
  %41 = tail call ptr @proto_tree_add_item(ptr noundef %36, i32 noundef %40, ptr noundef %0, i32 noundef %39, i32 noundef 12, i32 noundef 0)
  %42 = add i32 %3, 182
  %43 = load i32, ptr @hf_scsi_osd_diicvo, align 4
  %44 = tail call ptr @proto_tree_add_item(ptr noundef %36, i32 noundef %43, ptr noundef %0, i32 noundef %42, i32 noundef 4, i32 noundef 0)
  %45 = add i32 %3, 186
  %46 = load i32, ptr @hf_scsi_osd_doicvo, align 4
  %47 = tail call ptr @proto_tree_add_item(ptr noundef %36, i32 noundef %46, ptr noundef %0, i32 noundef %45, i32 noundef 4, i32 noundef 0)
  br label %48

48:                                               ; preds = %10, %dissect_osd_getsetattrib.exit
  %brmerge52 = or i1 %5, %.not
  br i1 %brmerge52, label %50, label %49

49:                                               ; preds = %48
  tail call fastcc void @dissect_osd_attribute_data_out(ptr noundef %1, ptr noundef %0, ptr noundef %2, ptr noundef %7, ptr noundef %9)
  br label %50

50:                                               ; preds = %48, %49
  %.not.i54 = icmp eq ptr %7, null
  %51 = or i1 %5, %.not.i54
  %or.cond = or i1 %4, %51
  br i1 %or.cond, label %dissect_osd_attribute_data_in.exit, label %52

52:                                               ; preds = %50
  %53 = getelementptr inbounds nuw i8, ptr %7, i64 8
  %54 = load ptr, ptr %53, align 8
  %.not14.i = icmp eq ptr %54, null
  br i1 %.not14.i, label %dissect_osd_attribute_data_in.exit, label %55

55:                                               ; preds = %52
  %56 = getelementptr inbounds nuw i8, ptr %54, i64 64
  %57 = load ptr, ptr %56, align 8
  %.not15.i = icmp eq ptr %57, null
  br i1 %.not15.i, label %dissect_osd_attribute_data_in.exit, label %58

58:                                               ; preds = %55
  %59 = getelementptr inbounds nuw i8, ptr %57, i64 2
  %60 = load i8, ptr %59, align 2
  %cond.i = icmp eq i8 %60, 3
  br i1 %cond.i, label %61, label %dissect_osd_attribute_data_in.exit

61:                                               ; preds = %58
  %62 = getelementptr inbounds nuw i8, ptr %57, i64 12
  %63 = load i32, ptr %62, align 4
  %.not16.i = icmp eq i32 %63, 0
  br i1 %.not16.i, label %dissect_osd_attribute_data_in.exit, label %64

64:                                               ; preds = %61
  %65 = getelementptr inbounds nuw i8, ptr %57, i64 16
  %66 = load i32, ptr %65, align 4
  %67 = getelementptr inbounds nuw i8, ptr %57, i64 32
  %68 = load i8, ptr %67, align 4, !range !9, !noundef !10
  %69 = trunc nuw i8 %68 to i1
  tail call fastcc void @dissect_osd_attributes_list(ptr noundef %1, ptr noundef %0, i32 noundef %66, ptr noundef %2, ptr noundef %9, i1 noundef zeroext %69)
  br label %dissect_osd_attribute_data_in.exit

dissect_osd_attribute_data_in.exit:               ; preds = %64, %61, %58, %55, %52, %50
  ret void
}